target datalayout = "e-m:e-p270:32:32-p271:32:32-p272:64:64-i64:64-i128:128-f80:128-n8:16:32:64-S128"
target triple = "x86_64-pc-linux-gnu"

%"class.std::__shared_count" = type { ptr }
%"class.arrow::Status" = type { ptr }
%"class.std::__shared_ptr.36" = type { ptr, %"class.std::__shared_count" }

@.str.1 = private unnamed_addr constant [56 x i8] c"Write record batch with custom metadata not implemented\00", align 1

; Function Attrs: mustprogress nounwind uwtable
define linkonce_odr noundef zeroext i1 @_ZNKSt12__shared_ptrIKN5arrow16KeyValueMetadataELN9__gnu_cxx12_Lock_policyE2EEcvbEv(ptr noundef nonnull align 8 dereferenceable(16) %0) #0 comdat align 2 {
  %2 = alloca ptr, align 8
  store ptr %0, ptr %2, align 8, !tbaa !156
  %3 = load ptr, ptr %2, align 8
  %4 = getelementptr inbounds nuw %"class.std::__shared_ptr.36", ptr %3, i32 0, i32 0
  %5 = load ptr, ptr %4, align 8, !tbaa !434
  %6 = icmp ne ptr %5, null
  ret i1 %6
}

; Function Attrs: mustprogress uwtable
define linkonce_odr void @_ZN5arrow6Status14NotImplementedIJRA56_KcEEES0_DpOT_(ptr dead_on_unwind noalias writable sret(%"class.arrow::Status") align 8 %0, ptr noundef nonnull align 1 dereferenceable(56) %1) #1 comdat align 2 {
  %3 = alloca ptr, align 8
  %4 = alloca ptr, align 8
  store ptr %0, ptr %3, align 8
  store ptr %1, ptr %4, align 8, !tbaa !211
  %5 = load ptr, ptr %4, align 8, !tbaa !211
  call void @_ZN5arrow6Status8FromArgsIJRA56_KcEEES0_NS_10StatusCodeEDpOT_(ptr dead_on_unwind writable sret(%"class.arrow::Status") align 8 %0, i8 noundef signext 10, ptr noundef nonnull align 1 dereferenceable(56) %5)
  ret void
}

; Function Attrs: inlinehint mustprogress nounwind uwtable
define linkonce_odr noundef zeroext i1 @_ZSteqIKN5arrow16KeyValueMetadataEEbRKSt10shared_ptrIT_EDn(ptr noundef nonnull align 8 dereferenceable(16) %0, ptr %1) #2 comdat {
  %3 = alloca ptr, align 8
  %4 = alloca ptr, align 8
  store ptr %0, ptr %3, align 8, !tbaa !152
  store ptr %1, ptr %4, align 8, !tbaa !154
  %5 = load ptr, ptr %3, align 8, !tbaa !152
  %6 = call noundef zeroext i1 @_ZNKSt12__shared_ptrIKN5arrow16KeyValueMetadataELN9__gnu_cxx12_Lock_policyE2EEcvbEv(ptr noundef nonnull align 8 dereferenceable(16) %5) #17
  %7 = xor i1 %6, true
  ret i1 %7
}

; Function Attrs: mustprogress uwtable
define void @_ZN5arrow3ipc17RecordBatchWriter16WriteRecordBatchERKNS_11RecordBatchERKSt10shared_ptrIKNS_16KeyValueMetadataEE(ptr dead_on_unwind noalias writable sret(%"class.arrow::Status") align 8 %0, ptr noundef nonnull align 8 dereferenceable(8) %1, ptr noundef nonnull align 8 dereferenceable(32) %2, ptr noundef nonnull align 8 dereferenceable(16) %3) unnamed_addr #1 align 2 {
  %5 = alloca ptr, align 8
  %6 = alloca ptr, align 8
  %7 = alloca ptr, align 8
  %8 = alloca ptr, align 8
  store ptr %0, ptr %5, align 8
  store ptr %1, ptr %6, align 8, !tbaa !278
  store ptr %2, ptr %7, align 8, !tbaa !150
  store ptr %3, ptr %8, align 8, !tbaa !152
  %9 = load ptr, ptr %6, align 8
  %10 = load ptr, ptr %8, align 8, !tbaa !152
  %11 = call noundef zeroext i1 @_ZSteqIKN5arrow16KeyValueMetadataEEbRKSt10shared_ptrIT_EDn(ptr noundef nonnull align 8 dereferenceable(16) %10, ptr null) #17
  br i1 %11, label %12, label %17

12:                                               ; preds = %4
  %13 = load ptr, ptr %7, align 8, !tbaa !150
  %14 = load ptr, ptr %9, align 8, !tbaa !63
  %15 = getelementptr inbounds ptr, ptr %14, i64 2
  %16 = load ptr, ptr %15, align 8
  call void %16(ptr dead_on_unwind writable sret(%"class.arrow::Status") align 8 %0, ptr noundef nonnull align 8 dereferenceable(8) %9, ptr noundef nonnull align 8 dereferenceable(32) %13)
  br label %18

17:                                               ; preds = %4
  call void @_ZN5arrow6Status14NotImplementedIJRA56_KcEEES0_DpOT_(ptr dead_on_unwind writable sret(%"class.arrow::Status") align 8 %0, ptr noundef nonnull align 1 dereferenceable(56) @.str.1)
  br label %18

18:                                               ; preds = %17, %12
  ret void
}