; Function Attrs: mustprogress uwtable
define void @_ZN5arrow3ipc17RecordBatchWriter16WriteRecordBatchERKNS_11RecordBatchERKSt10shared_ptrIKNS_16KeyValueMetadataEE(ptr dead_on_unwind noalias writable sret(%"class.arrow::Status") align 8 %0, ptr noundef nonnull align 8 dereferenceable(8) %1, ptr noundef nonnull align 8 dereferenceable(32) %2, ptr noundef nonnull readonly align 8 captures(none) dereferenceable(16) %3) unnamed_addr #1 align 2 {
  %5 = load ptr, ptr %3, align 8, !tbaa !174
  %.not.i = icmp eq ptr %5, null
  br i1 %.not.i, label %6, label %10

6:                                                ; preds = %4
  %7 = load ptr, ptr %1, align 8, !tbaa !57
  %8 = getelementptr inbounds nuw i8, ptr %7, i64 16
  %9 = load ptr, ptr %8, align 8
  tail call void %9(ptr dead_on_unwind writable sret(%"class.arrow::Status") align 8 %0, ptr noundef nonnull align 8 dereferenceable(8) %1, ptr noundef nonnull align 8 dereferenceable(32) %2)
  br label %11

10:                                               ; preds = %4
  tail call void @_ZN5arrow6Status8FromArgsIJRA56_KcEEES0_NS_10StatusCodeEDpOT_(ptr dead_on_unwind writable sret(%"class.arrow::Status") align 8 %0, i8 noundef signext 10, ptr noundef nonnull align 1 dereferenceable(56) @.str.1)
  br label %11

11:                                               ; preds = %10, %6
  ret void
}